Certificate:
    Data:
        Version: 3 (0x2)
        Serial Number: 1 (0x1)
        Signature Algorithm: sha256WithRSAEncryption
        Issuer: C=NL, ST=Noord Holland, L=Amsterdam, O=NLnet Labs, OU=Internet.NL, CN=ca-ocsp.test.nlnetlabs.nl
        Validity
            Not Before: Jun 10 21:22:20 2019 GMT
            Not After : Jun  9 21:22:20 2020 GMT
        Subject: C=NL, ST=Noord Holland, O=NLnet Labs, OU=Internet.NL, CN=ca-ocsp.test.nlnetlabs.nl
        Subject Public Key Info:
            Public Key Algorithm: rsaEncryption
                RSA Public-Key: (2048 bit)
                Modulus:
                    00:b3:2e:97:59:5a:70:92:bc:3f:33:c7:5a:13:f1:
                    ac:2a:e7:1b:fb:6b:3b:d6:ff:91:cb:4f:d8:ef:5e:
                    0d:96:e4:f2:2e:d5:e0:29:9e:6b:2a:6e:5e:41:41:
                    d8:11:76:27:71:63:3a:e8:f6:96:b3:ef:d8:ba:86:
                    8c:3b:bd:85:a7:25:aa:5b:e3:0e:b9:ab:49:99:ad:
                    4b:42:a4:8f:80:8a:1d:64:ca:06:3e:4c:1a:c7:f3:
                    1f:85:79:8f:27:aa:46:cd:fc:49:e4:28:57:2a:5e:
                    48:0e:87:15:b3:c4:8a:19:4c:ed:94:4a:77:33:1c:
                    31:d8:19:06:f4:7e:cc:87:6b:5d:dd:ca:3e:6b:98:
                    6b:45:b6:ea:81:f9:bb:19:14:51:9b:b1:bc:97:02:
                    d0:c6:e9:ca:a1:c2:28:47:c7:c4:02:76:e5:11:d8:
                    49:98:8d:96:f5:3f:74:8c:f8:5e:74:fe:eb:f7:91:
                    cd:82:da:b8:42:70:84:3e:2d:77:e5:29:a7:9e:71:
                    ed:d9:d0:6b:48:88:97:ea:51:6c:e8:39:b2:b7:9a:
                    29:69:48:28:10:e5:0b:2f:a8:e0:e2:5a:a6:27:57:
                    f4:9a:e1:f5:ac:9c:08:c0:c1:3c:be:d0:64:e7:89:
                    2f:e1:13:49:97:d8:4e:e6:d9:7f:5c:86:21:4a:7a:
                    67:a3
                Exponent: 65537 (0x10001)
        X509v3 extensions:
            X509v3 Basic Constraints: 
                CA:FALSE
            X509v3 Key Usage: 
                Digital Signature, Non Repudiation, Key Encipherment
            X509v3 Extended Key Usage: 
                OCSP Signing
    Signature Algorithm: sha256WithRSAEncryption
         3d:1a:1f:e9:88:2a:99:da:40:b2:d6:03:de:ea:a6:6c:7c:e9:
         37:d7:8c:2a:8d:da:07:da:97:b8:4b:ed:64:d3:31:95:df:0d:
         3f:4f:28:80:18:26:06:ed:dc:fe:fd:b1:f3:89:b5:ad:6a:7d:
         47:9d:2a:2e:18:63:6e:0e:17:65:bc:7a:10:62:b5:9d:4c:ea:
         1f:6f:cf:5f:e2:e0:32:09:e9:d0:3e:5d:21:8b:d3:fb:05:0b:
         a9:0e:60:60:b9:27:07:c5:19:9e:36:44:e3:50:a7:b6:21:1c:
         78:dc:5c:3f:36:27:d6:f1:ae:39:d9:a0:24:71:50:d9:e3:a4:
         ff:0e:8d:3a:30:17:f5:60:81:f1:a1:c9:72:df:7c:40:2e:1a:
         61:75:e6:db:e9:ef:59:1a:67:d4:9e:51:6a:b4:80:f0:49:45:
         cd:48:d5:d8:60:d5:68:13:87:5a:a8:ad:dc:14:5e:eb:11:70:
         50:bb:82:e4:b7:67:43:53:ae:5f:55:01:9e:40:07:cb:ac:78:
         d7:b0:cf:d0:bc:92:31:f8:36:4a:de:ff:bf:1f:7c:5f:31:a0:
         08:cd:15:d8:a5:b0:a8:61:f3:1b:b7:0f:16:61:36:d9:00:d6:
         d7:a0:07:8e:e3:2a:da:67:ab:c4:0d:c7:67:a0:e6:50:cc:99:
         88:e2:2b:14:29:98:cc:aa:23:4b:1d:03:8b:06:46:ac:cf:12:
         bb:a4:0a:8d:e5:14:2b:77:71:69:f6:d4:cf:d8:c4:4e:ed:72:
         2e:d7:a0:c2:c7:87:fe:93:35:d2:f0:e7:20:94:ee:0f:36:39:
         f9:e5:2f:3b:4d:19:91:ea:2c:c6:2d:1a:e1:e4:43:21:44:5f:
         dc:3c:ab:fd:fa:b6:19:51:19:c4:89:aa:4c:6a:d9:03:80:f5:
         76:ae:7b:cb:a2:cb:4d:f0:ab:b1:a4:62:c2:aa:49:30:33:91:
         7a:ea:46:25:34:49:bd:d6:d6:a0:1c:29:79:23:3d:b1:9a:36:
         69:e0:f9:d3:f0:50:45:fa:99:1e:a1:94:79:86:6a:ce:65:0d:
         e7:35:2d:80:35:51:9c:ae:2c:e6:00:d1:c6:fa:2e:a5:9e:24:
         e7:5e:46:b5:4c:50:93:ed:f9:17:bc:32:6b:19:50:00:0c:93:
         e2:8f:90:f4:35:3f:db:60:00:2f:ea:92:ce:13:81:68:f7:96:
         53:98:fc:98:80:ee:9f:32:28:21:1a:4a:d7:10:67:ff:a4:d3:
         fa:5c:9e:e2:43:d8:6f:4a:23:36:ed:f3:37:11:87:c1:a9:51:
         38:8f:45:c8:76:8c:c4:15:a2:00:e8:d5:71:7f:c2:38:dd:50:
         e8:8b:3b:ce:d7:a4:ad:69
-----BEGIN CERTIFICATE-----
MIIEpzCCAo+gAwIBAgIBATANBgkqhkiG9w0BAQsFADCBiDELMAkGA1UEBhMCTkwx
FjAUBgNVBAgMDU5vb3JkIEhvbGxhbmQxEjAQBgNVBAcMCUFtc3RlcmRhbTETMBEG
A1UECgwKTkxuZXQgTGFiczEUMBIGA1UECwwLSW50ZXJuZXQuTkwxIjAgBgNVBAMM
GWNhLW9jc3AudGVzdC5ubG5ldGxhYnMubmwwHhcNMTkwNjEwMjEyMjIwWhcNMjAw
NjA5MjEyMjIwWjB0MQswCQYDVQQGEwJOTDEWMBQGA1UECAwNTm9vcmQgSG9sbGFu
ZDETMBEGA1UECgwKTkxuZXQgTGFiczEUMBIGA1UECwwLSW50ZXJuZXQuTkwxIjAg
BgNVBAMMGWNhLW9jc3AudGVzdC5ubG5ldGxhYnMubmwwggEiMA0GCSqGSIb3DQEB
AQUAA4IBDwAwggEKAoIBAQCzLpdZWnCSvD8zx1oT8awq5xv7azvW/5HLT9jvXg2W
5PIu1eApnmsqbl5BQdgRdidxYzro9paz79i6how7vYWnJapb4w65q0mZrUtCpI+A
ih1kygY+TBrH8x+FeY8nqkbN/EnkKFcqXkgOhxWzxIoZTO2USnczHDHYGQb0fsyH
a13dyj5rmGtFtuqB+bsZFFGbsbyXAtDG6cqhwihHx8QCduUR2EmYjZb1P3SM+F50
/uv3kc2C2rhCcIQ+LXflKaeece3Z0GtIiJfqUWzoObK3milpSCgQ5QsvqODiWqYn
V/Sa4fWsnAjAwTy+0GTniS/hE0mX2E7m2X9chiFKemejAgMBAAGjLzAtMAkGA1Ud
EwQCMAAwCwYDVR0PBAQDAgXgMBMGA1UdJQQMMAoGCCsGAQUFBwMJMA0GCSqGSIb3
DQEBCwUAA4ICAQA9Gh/piCqZ2kCy1gPe6qZsfOk314wqjdoH2pe4S+1k0zGV3w0/
TyiAGCYG7dz+/bHzibWtan1HnSouGGNuDhdlvHoQYrWdTOofb89f4uAyCenQPl0h
i9P7BQupDmBguScHxRmeNkTjUKe2IRx43Fw/NifW8a452aAkcVDZ46T/Do06MBf1
YIHxocly33xALhphdebb6e9ZGmfUnlFqtIDwSUXNSNXYYNVoE4daqK3cFF7rEXBQ
u4Lkt2dDU65fVQGeQAfLrHjXsM/QvJIx+DZK3v+/H3xfMaAIzRXYpbCoYfMbtw8W
YTbZANbXoAeO4yraZ6vEDcdnoOZQzJmI4isUKZjMqiNLHQOLBkaszxK7pAqN5RQr
d3Fp9tTP2MRO7XIu16DCx4f+kzXS8OcglO4PNjn55S87TRmR6izGLRrh5EMhRF/c
PKv9+rYZURnEiapMatkDgPV2rnvLostN8KuxpGLCqkkwM5F66kYlNEm91tagHCl5
Iz2xmjZp4PnT8FBF+pkeoZR5hmrOZQ3nNS2ANVGcrizmANHG+i6lniTnXka1TFCT
7fkXvDJrGVAADJPij5D0NT/bYAAv6pLOE4Fo95ZTmPyYgO6fMighGkrXEGf/pNP6
XJ7iQ9hvSiM27fM3EYfBqVE4j0XIdozEFaIA6NVxf8I43VDoizvO16StaQ==
-----END CERTIFICATE-----
