Certificate:
    Data:
        Version: 3 (0x2)
        Serial Number: 1 (0x1)
    Signature Algorithm: sha256WithRSAEncryption
        Issuer: C=NL, ST=Noord Holland, L=Amsterdam, O=NLnet Labs, OU=Internet.nl, CN=ca-ocsp.test.nlnetlabs.tk
        Validity
            Not Before: Oct  3 14:55:41 2020 GMT
            Not After : Oct  2 14:55:41 2025 GMT
        Subject: C=NL, ST=Noord Holland, O=NLnet Labs, OU=Internet.nl, CN=ca-ocsp.test.nlnetlabs.tk
        Subject Public Key Info:
            Public Key Algorithm: rsaEncryption
                Public-Key: (2048 bit)
                Modulus:
                    00:a6:4e:f7:cc:72:46:a1:1e:66:b2:ae:43:0d:52:
                    15:96:08:d9:d9:d1:ed:90:28:8c:a3:97:4a:6d:b5:
                    37:02:c5:03:1e:55:60:4f:56:a7:11:73:e4:bf:c4:
                    5d:ce:90:d6:fb:20:62:63:ad:37:16:b2:c8:56:0d:
                    4b:f6:8c:b9:39:3d:ef:36:73:93:ae:bc:f0:9c:3b:
                    8f:04:5d:5a:52:cc:2d:bd:fe:d6:74:9a:2c:f2:52:
                    c3:58:48:cc:7f:73:cf:a8:75:24:18:21:69:49:c1:
                    d1:c7:3c:dc:d4:b1:ad:05:6f:3a:c5:45:24:df:63:
                    fe:26:8d:fe:8d:9d:c6:20:a5:a2:75:3f:27:42:08:
                    27:67:e9:8f:d9:b6:af:92:5e:b3:b5:3c:c0:9f:77:
                    27:ba:c9:a9:cf:df:cd:32:ff:b2:67:68:c8:8a:94:
                    91:6d:57:45:1a:a0:a0:82:d8:3e:3c:54:c2:13:f8:
                    d0:37:d3:8a:07:0a:e0:35:01:4f:1f:11:e7:2b:de:
                    75:54:34:e8:21:67:58:d0:30:64:f6:de:c3:96:cf:
                    4a:5e:12:7f:a8:46:1b:77:2c:fc:9f:ae:16:ff:23:
                    cb:7d:cc:3f:30:7b:0e:b9:29:9a:72:a2:63:46:9c:
                    fb:f0:69:c7:d3:2a:c3:37:d1:24:e4:49:c8:20:fd:
                    cf:bf
                Exponent: 65537 (0x10001)
        X509v3 extensions:
            X509v3 Basic Constraints: 
                CA:FALSE
            X509v3 Key Usage: 
                Digital Signature, Non Repudiation, Key Encipherment
            X509v3 Extended Key Usage: 
                OCSP Signing
    Signature Algorithm: sha256WithRSAEncryption
         90:a5:b2:b8:aa:91:d2:17:17:77:7c:ac:16:c6:13:b6:15:91:
         40:5e:2c:97:28:9a:59:e5:37:9b:85:1f:f9:fc:a8:a4:ed:50:
         9f:10:32:70:aa:2a:ef:5f:52:cb:fc:ff:d9:75:50:1f:ee:20:
         60:51:73:73:59:a4:3a:ee:58:62:72:0e:fc:56:ff:9d:7c:a4:
         9d:47:42:4e:04:78:07:ae:8d:8f:a3:a8:32:ec:3a:84:8d:17:
         2b:be:de:e1:43:5d:33:46:1a:64:9d:64:d0:15:ab:da:d7:3b:
         81:a8:50:35:ec:1e:0d:71:6a:61:23:30:b2:8d:36:d7:23:da:
         df:a7:9c:09:86:7d:db:a3:af:10:74:5a:ae:99:1c:64:0f:4b:
         e1:56:0b:25:9a:3b:07:1f:b1:f2:22:51:2d:26:68:b2:d2:3c:
         e1:52:f3:b3:f9:1b:51:3e:90:24:3c:84:aa:83:da:62:6f:8e:
         8d:b3:69:69:4b:3a:75:e7:af:68:d3:02:b4:fc:32:9c:f5:88:
         c9:d6:49:56:f1:1b:ac:db:20:51:7c:97:ce:94:3c:cd:23:43:
         b6:1d:88:3b:44:7c:b4:e2:76:c7:e1:f8:b5:10:a0:9f:6b:e9:
         34:12:6f:ea:d2:62:11:29:1b:d7:e6:e6:9f:a5:12:c5:a1:ee:
         c1:49:7c:2c:94:9d:d1:64:5e:69:a4:fb:03:74:a6:08:3d:53:
         47:fd:f6:41:85:97:ea:fd:aa:2e:4a:d2:b8:02:22:5f:f1:06:
         02:2d:8f:5a:76:c7:16:13:6a:56:ea:45:20:ee:21:b2:c3:f3:
         3a:be:8b:0e:c4:a4:89:5a:e2:4f:dd:d4:3c:a9:1f:e1:49:29:
         b7:74:17:9a:d7:bb:8c:15:4c:f2:3e:e1:b7:7f:30:78:d3:ae:
         1b:ec:00:c6:c0:33:bf:78:7c:97:ea:9b:42:96:42:47:70:61:
         d8:bf:91:81:5d:dc:2a:2d:83:72:5c:1e:92:23:0e:fe:d6:13:
         b1:31:26:fc:b6:11:76:cf:d4:d5:cb:53:67:19:07:dc:f6:6d:
         01:00:cd:b7:4a:e2:29:53:07:18:de:69:ed:45:e2:40:9a:22:
         82:62:3b:d3:d0:ea:a7:bf:8f:cf:c5:78:55:3e:c3:92:65:9b:
         23:2e:b9:c7:a7:09:7c:36:c4:8b:4d:72:cb:4d:f9:9a:dc:f2:
         00:c3:c3:93:da:2f:92:83:e3:45:1e:e8:a8:e2:13:46:96:af:
         8c:36:27:95:b3:67:48:6f:f9:50:28:62:cd:18:b7:ea:30:92:
         63:39:52:14:e5:09:35:84:c6:0c:e7:2c:f9:68:e6:aa:31:dd:
         f2:44:de:85:77:5a:1f:59
-----BEGIN CERTIFICATE-----
MIIEpzCCAo+gAwIBAgIBATANBgkqhkiG9w0BAQsFADCBiDELMAkGA1UEBhMCTkwx
FjAUBgNVBAgMDU5vb3JkIEhvbGxhbmQxEjAQBgNVBAcMCUFtc3RlcmRhbTETMBEG
A1UECgwKTkxuZXQgTGFiczEUMBIGA1UECwwLSW50ZXJuZXQubmwxIjAgBgNVBAMM
GWNhLW9jc3AudGVzdC5ubG5ldGxhYnMudGswHhcNMjAxMDAzMTQ1NTQxWhcNMjUx
MDAyMTQ1NTQxWjB0MQswCQYDVQQGEwJOTDEWMBQGA1UECAwNTm9vcmQgSG9sbGFu
ZDETMBEGA1UECgwKTkxuZXQgTGFiczEUMBIGA1UECwwLSW50ZXJuZXQubmwxIjAg
BgNVBAMMGWNhLW9jc3AudGVzdC5ubG5ldGxhYnMudGswggEiMA0GCSqGSIb3DQEB
AQUAA4IBDwAwggEKAoIBAQCmTvfMckahHmayrkMNUhWWCNnZ0e2QKIyjl0pttTcC
xQMeVWBPVqcRc+S/xF3OkNb7IGJjrTcWsshWDUv2jLk5Pe82c5OuvPCcO48EXVpS
zC29/tZ0mizyUsNYSMx/c8+odSQYIWlJwdHHPNzUsa0FbzrFRSTfY/4mjf6NncYg
paJ1PydCCCdn6Y/Ztq+SXrO1PMCfdye6yanP380y/7JnaMiKlJFtV0UaoKCC2D48
VMIT+NA304oHCuA1AU8fEecr3nVUNOghZ1jQMGT23sOWz0peEn+oRht3LPyfrhb/
I8t9zD8wew65KZpyomNGnPvwacfTKsM30STkScgg/c+/AgMBAAGjLzAtMAkGA1Ud
EwQCMAAwCwYDVR0PBAQDAgXgMBMGA1UdJQQMMAoGCCsGAQUFBwMJMA0GCSqGSIb3
DQEBCwUAA4ICAQCQpbK4qpHSFxd3fKwWxhO2FZFAXiyXKJpZ5TebhR/5/Kik7VCf
EDJwqirvX1LL/P/ZdVAf7iBgUXNzWaQ67lhicg78Vv+dfKSdR0JOBHgHro2Po6gy
7DqEjRcrvt7hQ10zRhpknWTQFava1zuBqFA17B4NcWphIzCyjTbXI9rfp5wJhn3b
o68QdFqumRxkD0vhVgslmjsHH7HyIlEtJmiy0jzhUvOz+RtRPpAkPISqg9pib46N
s2lpSzp1569o0wK0/DKc9YjJ1klW8Rus2yBRfJfOlDzNI0O2HYg7RHy04nbH4fi1
EKCfa+k0Em/q0mIRKRvX5uafpRLFoe7BSXwslJ3RZF5ppPsDdKYIPVNH/fZBhZfq
/aouStK4AiJf8QYCLY9adscWE2pW6kUg7iGyw/M6vosOxKSJWuJP3dQ8qR/hSSm3
dBea17uMFUzyPuG3fzB4064b7ADGwDO/eHyX6ptClkJHcGHYv5GBXdwqLYNyXB6S
Iw7+1hOxMSb8thF2z9TVy1NnGQfc9m0BAM23SuIpUwcY3mntReJAmiKCYjvT0Oqn
v4/PxXhVPsOSZZsjLrnHpwl8NsSLTXLLTfma3PIAw8OT2i+Sg+NFHuio4hNGlq+M
NieVs2dIb/lQKGLNGLfqMJJjOVIU5Qk1hMYM5yz5aOaqMd3yRN6Fd1ofWQ==
-----END CERTIFICATE-----
